; Function Attrs: nounwind uwtable
define ptr @l_Lean_Elab_Tactic_Conv_congrArgN___boxed(ptr noundef %0, ptr noundef %1, ptr noundef %2, ptr noundef %3, ptr noundef %4, ptr noundef %5, ptr noundef %6, ptr noundef %7, ptr noundef %8) local_unnamed_addr #1 {
  %10 = ptrtoint ptr %3 to i64
  %11 = and i64 %10, 1
  %.not = icmp eq i64 %11, 0
  br i1 %.not, label %12, label %lean_dec.exit

12:                                               ; preds = %9
  %13 = load i32, ptr %3, align 4, !tbaa !6
  %14 = icmp sgt i32 %13, 1
  br i1 %14, label %15, label %17, !prof !5

15:                                               ; preds = %12
  %16 = add nsw i32 %13, -1
  store i32 %16, ptr %3, align 4, !tbaa !6
  br label %lean_dec.exit

17:                                               ; preds = %12
  %.not.i = icmp eq i32 %13, 0
  br i1 %.not.i, label %lean_dec.exit, label %18

18:                                               ; preds = %17
  tail call void @lean_dec_ref_cold(ptr noundef nonnull %3) #4
  br label %lean_dec.exit

lean_dec.exit:                                    ; preds = %18, %17, %15, %9
  %19 = ptrtoint ptr %1 to i64
  %20 = and i64 %19, 1
  %.not.i11 = icmp eq i64 %20, 0
  br i1 %.not.i11, label %21, label %lean_inc.exit.i

21:                                               ; preds = %lean_dec.exit
  %.val.i.i = load i32, ptr %1, align 4, !tbaa !6
  %22 = icmp sgt i32 %.val.i.i, 0
  br i1 %22, label %23, label %25, !prof !5

23:                                               ; preds = %21
  %24 = add nuw i32 %.val.i.i, 1
  store i32 %24, ptr %1, align 4, !tbaa !6
  br label %lean_inc.exit.i

25:                                               ; preds = %21
  %.not.i.i = icmp eq i32 %.val.i.i, 0
  br i1 %.not.i.i, label %lean_inc.exit.i, label %26

26:                                               ; preds = %25
  tail call void @lean_inc_ref_cold(ptr noundef nonnull %1) #4
  br label %lean_inc.exit.i

lean_inc.exit.i:                                  ; preds = %26, %25, %23, %lean_dec.exit
  tail call void @lean_inc_heartbeat() #4
  %27 = tail call noalias ptr @mi_malloc_small(i64 noundef 56) #4
  %28 = icmp eq ptr %27, null
  br i1 %28, label %29, label %l_Lean_Elab_Tactic_Conv_congrArgN.exit

29:                                               ; preds = %lean_inc.exit.i
  tail call void @lean_internal_panic_out_of_memory() #5
  unreachable

l_Lean_Elab_Tactic_Conv_congrArgN.exit:           ; preds = %lean_inc.exit.i
  %30 = and i64 %10, 510
  %31 = or disjoint i64 %30, 1
  %32 = inttoptr i64 %31 to ptr
  %33 = getelementptr inbounds nuw i8, ptr %27, i64 4
  store i32 1, ptr %27, align 4, !tbaa !6
  store i32 -184549320, ptr %33, align 4
  %34 = getelementptr inbounds nuw i8, ptr %27, i64 8
  store ptr @l_Lean_Elab_Tactic_Conv_congrArgN___lambda__2___boxed, ptr %34, align 8, !tbaa !11
  %35 = getelementptr inbounds nuw i8, ptr %27, i64 16
  store i16 9, ptr %35, align 8, !tbaa !15
  %36 = getelementptr inbounds nuw i8, ptr %27, i64 18
  store i16 4, ptr %36, align 2, !tbaa !15
  %37 = getelementptr inbounds nuw i8, ptr %27, i64 24
  store ptr %1, ptr %37, align 8, !tbaa !11
  %38 = getelementptr inbounds nuw i8, ptr %27, i64 32
  store ptr %0, ptr %38, align 8, !tbaa !11
  %39 = getelementptr inbounds nuw i8, ptr %27, i64 40
  store ptr %2, ptr %39, align 8, !tbaa !11
  %40 = getelementptr inbounds nuw i8, ptr %27, i64 48
  store ptr %32, ptr %40, align 8, !tbaa !11
  %41 = tail call ptr @l_Lean_MVarId_withContext___at___private_Lean_Meta_SynthInstance_0__Lean_Meta_synthPendingImp___spec__2___rarg(ptr noundef %1, ptr noundef nonnull %27, ptr noundef %4, ptr noundef %5, ptr noundef %6, ptr noundef %7, ptr noundef %8) #4
  ret ptr %41
}